target datalayout = "e-m:e-p270:32:32-p271:32:32-p272:64:64-i64:64-i128:128-f80:128-n8:16:32:64-S128"
target triple = "x86_64-pc-linux-gnu"

%struct.startup_info = type { i32, ptr, ptr }

@startup_info = external global ptr, align 8

; Function Attrs: inlinehint nounwind uwtable
define internal i32 @is_missing_file_error(i32 noundef %0) #3 {
  %2 = alloca i32, align 4
  store i32 %0, ptr %2, align 4, !tbaa !16
  %3 = load i32, ptr %2, align 4, !tbaa !16
  %4 = icmp eq i32 %3, 2
  br i1 %4, label %8, label %5

5:                                                ; preds = %1
  %6 = load i32, ptr %2, align 4, !tbaa !16
  %7 = icmp eq i32 %6, 20
  br label %8

8:                                                ; preds = %5, %1
  %9 = phi i1 [ true, %1 ], [ %7, %5 ]
  %10 = zext i1 %9 to i32
  ret i32 %10
}

; Function Attrs: nounwind uwtable
define dso_local i32 @remove_path(ptr noundef %0) #0 {
  %2 = alloca i32, align 4
  %3 = alloca ptr, align 8
  %4 = alloca ptr, align 8
  %5 = alloca i32, align 4
  %6 = alloca ptr, align 8
  store ptr %0, ptr %3, align 8, !tbaa !13
  call void @llvm.lifetime.start.p0(i64 8, ptr %4) #12
  %7 = load ptr, ptr %3, align 8, !tbaa !13
  %8 = call i32 @unlink(ptr noundef %7) #12
  %9 = icmp ne i32 %8, 0
  br i1 %9, label %10, label %16

10:                                               ; preds = %1
  %11 = call ptr @__errno_location() #15
  %12 = load i32, ptr %11, align 4, !tbaa !16
  %13 = call i32 @is_missing_file_error(i32 noundef %12)
  %14 = icmp ne i32 %13, 0
  br i1 %14, label %16, label %15

15:                                               ; preds = %10
  store i32 -1, ptr %2, align 4
  store i32 1, ptr %5, align 4
  br label %59

16:                                               ; preds = %10, %1
  %17 = load ptr, ptr %3, align 8, !tbaa !13
  %18 = call ptr @strrchr(ptr noundef %17, i32 noundef 47) #13
  store ptr %18, ptr %4, align 8, !tbaa !13
  %19 = load ptr, ptr %4, align 8, !tbaa !13
  %20 = icmp ne ptr %19, null
  br i1 %20, label %21, label %58

21:                                               ; preds = %16
  call void @llvm.lifetime.start.p0(i64 8, ptr %6) #12
  %22 = load ptr, ptr %3, align 8, !tbaa !13
  %23 = call ptr @xstrdup(ptr noundef %22)
  store ptr %23, ptr %6, align 8, !tbaa !13
  %24 = load ptr, ptr %6, align 8, !tbaa !13
  %25 = load ptr, ptr %4, align 8, !tbaa !13
  %26 = load ptr, ptr %3, align 8, !tbaa !13
  %27 = ptrtoint ptr %25 to i64
  %28 = ptrtoint ptr %26 to i64
  %29 = sub i64 %27, %28
  %30 = getelementptr inbounds i8, ptr %24, i64 %29
  store ptr %30, ptr %4, align 8, !tbaa !13
  br label %31

31:                                               ; preds = %54, %21
  %32 = load ptr, ptr %4, align 8, !tbaa !13
  store i8 0, ptr %32, align 1, !tbaa !15
  %33 = load ptr, ptr @startup_info, align 8, !tbaa !209
  %34 = getelementptr inbounds nuw %struct.startup_info, ptr %33, i32 0, i32 2
  %35 = load ptr, ptr %34, align 8, !tbaa !211
  %36 = icmp ne ptr %35, null
  br i1 %36, label %37, label %45

37:                                               ; preds = %31
  %38 = load ptr, ptr @startup_info, align 8, !tbaa !209
  %39 = getelementptr inbounds nuw %struct.startup_info, ptr %38, i32 0, i32 2
  %40 = load ptr, ptr %39, align 8, !tbaa !211
  %41 = load ptr, ptr %6, align 8, !tbaa !13
  %42 = call i32 @strcmp(ptr noundef %40, ptr noundef %41) #13
  %43 = icmp ne i32 %42, 0
  br i1 %43, label %45, label %44

44:                                               ; preds = %37
  br label %56

45:                                               ; preds = %37, %31
  br label %46

46:                                               ; preds = %45
  %47 = load ptr, ptr %6, align 8, !tbaa !13
  %48 = call i32 @lstat_cache_aware_rmdir(ptr noundef %47)
  %49 = icmp eq i32 %48, 0
  br i1 %49, label %50, label %54

50:                                               ; preds = %46
  %51 = load ptr, ptr %6, align 8, !tbaa !13
  %52 = call ptr @strrchr(ptr noundef %51, i32 noundef 47) #13
  store ptr %52, ptr %4, align 8, !tbaa !13
  %53 = icmp ne ptr %52, null
  br label %54

54:                                               ; preds = %50, %46
  %55 = phi i1 [ false, %46 ], [ %53, %50 ]
  br i1 %55, label %31, label %56, !llvm.loop !214

56:                                               ; preds = %54, %44
  %57 = load ptr, ptr %6, align 8, !tbaa !13
  call void @free(ptr noundef %57) #12
  call void @llvm.lifetime.end.p0(i64 8, ptr %6) #12
  br label %58

58:                                               ; preds = %56, %16
  store i32 0, ptr %2, align 4
  store i32 1, ptr %5, align 4
  br label %59

59:                                               ; preds = %58, %15
  call void @llvm.lifetime.end.p0(i64 8, ptr %4) #12
  %60 = load i32, ptr %2, align 4
  ret i32 %60
}