; Function Attrs: nounwind uwtable
define dso_local range(i32 -1, 1) i32 @remove_path(ptr noundef %0) local_unnamed_addr #0 {
  %2 = tail call i32 @unlink(ptr noundef %0) #27
  %.not = icmp eq i32 %2, 0
  br i1 %.not, label %6, label %3

3:                                                ; preds = %1
  %4 = tail call ptr @__errno_location() #30
  %5 = load i32, ptr %4, align 4, !tbaa !10
  switch i32 %5, label %25 [
    i32 20, label %6
    i32 2, label %6
  ]

6:                                                ; preds = %3, %3, %1
  %7 = tail call ptr @strrchr(ptr noundef nonnull dereferenceable(1) %0, i32 noundef 47) #28
  %.not17 = icmp eq ptr %7, null
  br i1 %.not17, label %25, label %8

8:                                                ; preds = %6
  %9 = tail call ptr @xstrdup(ptr noundef nonnull %0) #27
  %10 = ptrtoint ptr %7 to i64
  %11 = ptrtoint ptr %0 to i64
  %12 = sub i64 %10, %11
  %13 = getelementptr inbounds i8, ptr %9, i64 %12
  br label %14

14:                                               ; preds = %23, %8
  %.012 = phi ptr [ %13, %8 ], [ %24, %23 ]
  store i8 0, ptr %.012, align 1, !tbaa !4
  %15 = load ptr, ptr @startup_info, align 8, !tbaa !192
  %16 = getelementptr inbounds nuw i8, ptr %15, i64 16
  %17 = load ptr, ptr %16, align 8, !tbaa !194
  %.not18 = icmp eq ptr %17, null
  br i1 %.not18, label %20, label %18

18:                                               ; preds = %14
  %19 = tail call i32 @strcmp(ptr noundef nonnull dereferenceable(1) %17, ptr noundef nonnull dereferenceable(1) %9) #28
  %.not19 = icmp eq i32 %19, 0
  br i1 %.not19, label %.critedge, label %20

20:                                               ; preds = %14, %18
  %21 = tail call i32 @lstat_cache_aware_rmdir(ptr noundef %9) #27
  %22 = icmp eq i32 %21, 0
  br i1 %22, label %23, label %.critedge

23:                                               ; preds = %20
  %24 = tail call ptr @strrchr(ptr noundef nonnull dereferenceable(1) %9, i32 noundef 47) #28
  %.not20 = icmp eq ptr %24, null
  br i1 %.not20, label %.critedge, label %14, !llvm.loop !197

.critedge:                                        ; preds = %20, %18, %23
  tail call void @free(ptr noundef %9) #27
  br label %25

25:                                               ; preds = %3, %6, %.critedge
  %.0 = phi i32 [ -1, %3 ], [ 0, %.critedge ], [ 0, %6 ]
  ret i32 %.0
}